target datalayout = "e-m:e-p270:32:32-p271:32:32-p272:64:64-i64:64-i128:128-f80:128-n8:16:32:64-S128"
target triple = "x86_64-pc-linux-gnu"

%struct._php_stream = type { ptr, ptr, %struct._php_stream_filter_chain, %struct._php_stream_filter_chain, ptr, ptr, %struct._zval_struct, i16, [16 x i8], i32, ptr, ptr, ptr, ptr, i64, ptr, i64, i64, i64, i64, ptr }
%struct._php_stream_filter_chain = type { ptr, ptr, ptr }
%struct._zval_struct = type { %union._zend_value, %union.anon, %union.anon.2 }
%union._zend_value = type { i64 }
%union.anon = type { i32 }
%union.anon.2 = type { i32 }
%struct.php_stdio_stream_data = type { ptr, i32, i32, i32, ptr, ptr, i64, %struct.stat }
%struct.stat = type { i64, i64, i64, i32, i32, i32, i32, i64, i64, i64, i64, %struct.timespec, %struct.timespec, %struct.timespec, [3 x i64] }
%struct.timespec = type { i64, i64 }
%struct._php_stream_statbuf = type { %struct.stat }

; Function Attrs: nounwind uwtable
define internal i32 @do_fstat(ptr noundef %0, i32 noundef %1) #0 {
  %3 = alloca i32, align 4
  %4 = alloca ptr, align 8
  %5 = alloca i32, align 4
  %6 = alloca i32, align 4
  %7 = alloca i32, align 4
  store ptr %0, ptr %4, align 8, !tbaa !31
  store i32 %1, ptr %5, align 4, !tbaa !12
  %8 = load ptr, ptr %4, align 8, !tbaa !31
  %9 = getelementptr inbounds nuw %struct.php_stdio_stream_data, ptr %8, i32 0, i32 2
  %10 = load i32, ptr %9, align 4
  %11 = lshr i32 %10, 2
  %12 = and i32 %11, 1
  %13 = icmp ne i32 %12, 0
  br i1 %13, label %14, label %24

14:                                               ; preds = %2
  %15 = load i32, ptr %5, align 4, !tbaa !12
  %16 = icmp ne i32 %15, 0
  br i1 %16, label %17, label %55

17:                                               ; preds = %14
  %18 = load ptr, ptr %4, align 8, !tbaa !31
  %19 = getelementptr inbounds nuw %struct.php_stdio_stream_data, ptr %18, i32 0, i32 2
  %20 = load i32, ptr %19, align 4
  %21 = lshr i32 %20, 4
  %22 = and i32 %21, 1
  %23 = icmp ne i32 %22, 0
  br i1 %23, label %55, label %24

24:                                               ; preds = %17, %2
  call void @llvm.lifetime.start.p0(i64 4, ptr %6) #13
  call void @llvm.lifetime.start.p0(i64 4, ptr %7) #13
  %25 = load ptr, ptr %4, align 8, !tbaa !31
  %26 = getelementptr inbounds nuw %struct.php_stdio_stream_data, ptr %25, i32 0, i32 0
  %27 = load ptr, ptr %26, align 8, !tbaa !42
  %28 = icmp ne ptr %27, null
  br i1 %28, label %29, label %34

29:                                               ; preds = %24
  %30 = load ptr, ptr %4, align 8, !tbaa !31
  %31 = getelementptr inbounds nuw %struct.php_stdio_stream_data, ptr %30, i32 0, i32 0
  %32 = load ptr, ptr %31, align 8, !tbaa !42
  %33 = call i32 @fileno(ptr noundef %32) #13
  br label %38

34:                                               ; preds = %24
  %35 = load ptr, ptr %4, align 8, !tbaa !31
  %36 = getelementptr inbounds nuw %struct.php_stdio_stream_data, ptr %35, i32 0, i32 1
  %37 = load i32, ptr %36, align 8, !tbaa !43
  br label %38

38:                                               ; preds = %34, %29
  %39 = phi i32 [ %33, %29 ], [ %37, %34 ]
  store i32 %39, ptr %6, align 4, !tbaa !12
  %40 = load i32, ptr %6, align 4, !tbaa !12
  %41 = load ptr, ptr %4, align 8, !tbaa !31
  %42 = getelementptr inbounds nuw %struct.php_stdio_stream_data, ptr %41, i32 0, i32 7
  %43 = call i32 @fstat(i32 noundef %40, ptr noundef %42) #13
  store i32 %43, ptr %7, align 4, !tbaa !12
  %44 = load i32, ptr %7, align 4, !tbaa !12
  %45 = icmp eq i32 %44, 0
  %46 = zext i1 %45 to i32
  %47 = load ptr, ptr %4, align 8, !tbaa !31
  %48 = getelementptr inbounds nuw %struct.php_stdio_stream_data, ptr %47, i32 0, i32 2
  %49 = load i32, ptr %48, align 4
  %50 = and i32 %46, 1
  %51 = shl i32 %50, 2
  %52 = and i32 %49, -5
  %53 = or i32 %52, %51
  store i32 %53, ptr %48, align 4
  %54 = load i32, ptr %7, align 4, !tbaa !12
  store i32 %54, ptr %3, align 4
  call void @llvm.lifetime.end.p0(i64 4, ptr %7) #13
  call void @llvm.lifetime.end.p0(i64 4, ptr %6) #13
  br label %56

55:                                               ; preds = %17, %14
  store i32 0, ptr %3, align 4
  br label %56

56:                                               ; preds = %55, %38
  %57 = load i32, ptr %3, align 4
  ret i32 %57
}

; Function Attrs: nounwind uwtable
define internal i32 @php_stdiop_stat(ptr noundef %0, ptr noundef %1) #0 {
  %3 = alloca ptr, align 8
  %4 = alloca ptr, align 8
  %5 = alloca i32, align 4
  %6 = alloca ptr, align 8
  store ptr %0, ptr %3, align 8, !tbaa !18
  store ptr %1, ptr %4, align 8, !tbaa !57
  call void @llvm.lifetime.start.p0(i64 4, ptr %5) #13
  call void @llvm.lifetime.start.p0(i64 8, ptr %6) #13
  %7 = load ptr, ptr %3, align 8, !tbaa !18
  %8 = getelementptr inbounds nuw %struct._php_stream, ptr %7, i32 0, i32 1
  %9 = load ptr, ptr %8, align 8, !tbaa !20
  store ptr %9, ptr %6, align 8, !tbaa !31
  %10 = load ptr, ptr %6, align 8, !tbaa !31
  %11 = call i32 @do_fstat(ptr noundef %10, i32 noundef 1)
  store i32 %11, ptr %5, align 4, !tbaa !12
  %12 = icmp eq i32 %11, 0
  br i1 %12, label %13, label %18

13:                                               ; preds = %2
  %14 = load ptr, ptr %4, align 8, !tbaa !57
  %15 = getelementptr inbounds nuw %struct._php_stream_statbuf, ptr %14, i32 0, i32 0
  %16 = load ptr, ptr %6, align 8, !tbaa !31
  %17 = getelementptr inbounds nuw %struct.php_stdio_stream_data, ptr %16, i32 0, i32 7
  call void @llvm.memcpy.p0.p0.i64(ptr align 8 %15, ptr align 8 %17, i64 144, i1 false)
  br label %18

18:                                               ; preds = %13, %2
  %19 = load i32, ptr %5, align 4, !tbaa !12
  call void @llvm.lifetime.end.p0(i64 8, ptr %6) #13
  call void @llvm.lifetime.end.p0(i64 4, ptr %5) #13
  ret i32 %19
}