; Function Attrs: nofree nounwind uwtable
define internal noundef i32 @php_stdiop_stat(ptr noundef readonly captures(none) %0, ptr noundef writeonly captures(none) %1) #9 {
  %3 = getelementptr inbounds nuw i8, ptr %0, i64 8
  %4 = load ptr, ptr %3, align 8, !tbaa !20
  %5 = getelementptr inbounds nuw i8, ptr %4, i64 12
  %6 = load i32, ptr %5, align 4
  %7 = and i32 %6, 20
  %or.cond.not = icmp eq i32 %7, 20
  br i1 %or.cond.not, label %do_fstat.exit.thread, label %8

8:                                                ; preds = %2
  %9 = load ptr, ptr %4, align 8, !tbaa !36
  %.not14.i = icmp eq ptr %9, null
  br i1 %.not14.i, label %12, label %10

10:                                               ; preds = %8
  %11 = tail call i32 @fileno(ptr noundef nonnull %9) #17
  br label %do_fstat.exit

12:                                               ; preds = %8
  %13 = getelementptr inbounds nuw i8, ptr %4, i64 8
  %14 = load i32, ptr %13, align 8, !tbaa !19
  br label %do_fstat.exit

do_fstat.exit:                                    ; preds = %10, %12
  %15 = phi i32 [ %11, %10 ], [ %14, %12 ]
  %16 = getelementptr inbounds nuw i8, ptr %4, i64 48
  %17 = tail call i32 @fstat(i32 noundef %15, ptr noundef nonnull %16) #17
  %18 = icmp eq i32 %17, 0
  %19 = load i32, ptr %5, align 4
  %20 = select i1 %18, i32 4, i32 0
  %21 = and i32 %19, -5
  %22 = or disjoint i32 %21, %20
  store i32 %22, ptr %5, align 4
  br i1 %18, label %do_fstat.exit.thread, label %24

do_fstat.exit.thread:                             ; preds = %2, %do_fstat.exit
  %23 = getelementptr inbounds nuw i8, ptr %4, i64 48
  tail call void @llvm.memcpy.p0.p0.i64(ptr noundef nonnull align 8 dereferenceable(144) %1, ptr noundef nonnull align 8 dereferenceable(144) %23, i64 144, i1 false)
  br label %24

24:                                               ; preds = %do_fstat.exit.thread, %do_fstat.exit
  %.0.i5 = phi i32 [ 0, %do_fstat.exit.thread ], [ %17, %do_fstat.exit ]
  ret i32 %.0.i5
}